target datalayout = "e-m:e-p270:32:32-p271:32:32-p272:64:64-i64:64-i128:128-f80:128-n8:16:32:64-S128"
target triple = "x86_64-pc-linux-gnu"

%struct.wtap_reader = type { i32, i64, i64, i32, %struct.wtap_reader_buf, %struct.wtap_reader_buf, i8, i64, i64, i32, i32, i8, i64, i8, i32, ptr, %struct.z_stream_s, i8, ptr, ptr, %struct.LZ4F_frameInfo_t, [19 x i8], ptr, ptr }
%struct.wtap_reader_buf = type { ptr, ptr, i32 }
%struct.z_stream_s = type { ptr, i32, i64, ptr, i32, i64, ptr, ptr, ptr, ptr, ptr, i32, i64, i64 }
%struct.LZ4F_frameInfo_t = type { i32, i32, i32, i32, i64, i32, i32 }

@.str.1 = private unnamed_addr constant [5 x i8] c".caz\00", align 1

; Function Attrs: null_pointer_is_valid sspstrong uwtable
define hidden ptr @file_open(ptr noundef %0) #0 {
  %2 = alloca ptr, align 8
  %3 = alloca ptr, align 8
  %4 = alloca i32, align 4
  %5 = alloca ptr, align 8
  %6 = alloca ptr, align 8
  %7 = alloca i32, align 4
  store ptr %0, ptr %3, align 8
  call void @llvm.lifetime.start.p0(i64 4, ptr %4) #14
  call void @llvm.lifetime.start.p0(i64 8, ptr %5) #14
  call void @llvm.lifetime.start.p0(i64 8, ptr %6) #14
  %8 = load ptr, ptr %3, align 8
  %9 = call i32 (ptr, i32, ...) @open(ptr noundef %8, i32 noundef 0, i32 noundef 0)
  store i32 %9, ptr %4, align 4
  %10 = icmp eq i32 %9, -1
  br i1 %10, label %11, label %12

11:                                               ; preds = %1
  store ptr null, ptr %2, align 8
  store i32 1, ptr %7, align 4
  br label %35

12:                                               ; preds = %1
  %13 = load i32, ptr %4, align 4
  %14 = call ptr @file_fdopen(i32 noundef %13)
  store ptr %14, ptr %5, align 8
  %15 = load ptr, ptr %5, align 8
  %16 = icmp eq ptr %15, null
  br i1 %16, label %17, label %20

17:                                               ; preds = %12
  %18 = load i32, ptr %4, align 4
  %19 = call i32 @close(i32 noundef %18)
  store ptr null, ptr %2, align 8
  store i32 1, ptr %7, align 4
  br label %35

20:                                               ; preds = %12
  %21 = load ptr, ptr %3, align 8
  %22 = call ptr @strrchr(ptr noundef %21, i32 noundef 46) #18
  store ptr %22, ptr %6, align 8
  %23 = load ptr, ptr %6, align 8
  %24 = icmp ne ptr %23, null
  br i1 %24, label %25, label %33

25:                                               ; preds = %20
  %26 = load ptr, ptr %6, align 8
  %27 = call i32 @g_ascii_strcasecmp(ptr noundef %26, ptr noundef @.str.1)
  %28 = icmp eq i32 %27, 0
  br i1 %28, label %29, label %32

29:                                               ; preds = %25
  %30 = load ptr, ptr %5, align 8
  %31 = getelementptr inbounds nuw %struct.wtap_reader, ptr %30, i32 0, i32 17
  store i8 1, ptr %31, align 8
  br label %32

32:                                               ; preds = %29, %25
  br label %33

33:                                               ; preds = %32, %20
  %34 = load ptr, ptr %5, align 8
  store ptr %34, ptr %2, align 8
  store i32 1, ptr %7, align 4
  br label %35

35:                                               ; preds = %33, %17, %11
  call void @llvm.lifetime.end.p0(i64 8, ptr %6) #14
  call void @llvm.lifetime.end.p0(i64 8, ptr %5) #14
  call void @llvm.lifetime.end.p0(i64 4, ptr %4) #14
  %36 = load ptr, ptr %2, align 8
  ret ptr %36
}