; Function Attrs: null_pointer_is_valid sspstrong uwtable
define hidden noundef ptr @file_open(ptr noundef %0) local_unnamed_addr #0 {
  %2 = tail call i32 (ptr, i32, ...) @open(ptr noundef %0, i32 noundef 0, i32 noundef 0)
  %3 = icmp eq i32 %2, -1
  br i1 %3, label %16, label %4

4:                                                ; preds = %1
  %5 = tail call ptr @file_fdopen(i32 noundef %2)
  %6 = icmp eq ptr %5, null
  br i1 %6, label %7, label %9

7:                                                ; preds = %4
  %8 = tail call i32 @close(i32 noundef %2)
  br label %16

9:                                                ; preds = %4
  %10 = tail call ptr @strrchr(ptr noundef %0, i32 noundef 46) #24
  %.not = icmp eq ptr %10, null
  br i1 %.not, label %16, label %11

11:                                               ; preds = %9
  %12 = tail call i32 @g_ascii_strcasecmp(ptr noundef nonnull %10, ptr noundef nonnull @.str.1)
  %13 = icmp eq i32 %12, 0
  br i1 %13, label %14, label %16

14:                                               ; preds = %11
  %15 = getelementptr inbounds nuw i8, ptr %5, i64 256
  store i8 1, ptr %15, align 8
  br label %16

16:                                               ; preds = %9, %14, %11, %1, %7
  %.0 = phi ptr [ null, %7 ], [ null, %1 ], [ %5, %11 ], [ %5, %14 ], [ %5, %9 ]
  ret ptr %.0
}